; Function Attrs: nounwind uwtable
define dso_local i64 @range_merge(ptr noundef readonly captures(none) %0) local_unnamed_addr #0 {
  %2 = getelementptr inbounds nuw i8, ptr %0, i64 32
  %3 = load i64, ptr %2, align 8
  %4 = inttoptr i64 %3 to ptr
  %5 = tail call ptr @pg_detoast_datum(ptr noundef %4) #14
  %6 = getelementptr inbounds nuw i8, ptr %0, i64 48
  %7 = load i64, ptr %6, align 8
  %8 = inttoptr i64 %7 to ptr
  %9 = tail call ptr @pg_detoast_datum(ptr noundef %8) #14
  %10 = getelementptr inbounds nuw i8, ptr %5, i64 4
  %11 = load i32, ptr %10, align 4
  %12 = load ptr, ptr %0, align 8
  %13 = getelementptr inbounds nuw i8, ptr %12, i64 24
  %14 = load ptr, ptr %13, align 8
  %15 = icmp eq ptr %14, null
  br i1 %15, label %18, label %16

16:                                               ; preds = %1
  %17 = load i32, ptr %14, align 8
  %.not.i = icmp eq i32 %17, %11
  br i1 %.not.i, label %range_get_typcache.exit, label %18

18:                                               ; preds = %16, %1
  %19 = tail call ptr @lookup_type_cache(i32 noundef %11, i32 noundef 2048) #14
  %20 = getelementptr inbounds nuw i8, ptr %19, i64 280
  %21 = load ptr, ptr %20, align 8
  %22 = icmp eq ptr %21, null
  br i1 %22, label %23, label %26

23:                                               ; preds = %18
  %24 = tail call zeroext i1 @errstart_cold(i32 noundef 21, ptr noundef null) #16
  tail call void @llvm.assume(i1 %24)
  %25 = tail call i32 (ptr, ...) @errmsg_internal(ptr noundef nonnull @.str.12, i32 noundef %11) #14
  tail call void @errfinish(ptr noundef nonnull @.str.1, i32 noundef 1712, ptr noundef nonnull @__func__.range_get_typcache) #14
  unreachable

26:                                               ; preds = %18
  %27 = load ptr, ptr %0, align 8
  %28 = getelementptr inbounds nuw i8, ptr %27, i64 24
  store ptr %19, ptr %28, align 8
  br label %range_get_typcache.exit

range_get_typcache.exit:                          ; preds = %16, %26
  %.0.i = phi ptr [ %19, %26 ], [ %14, %16 ]
  %29 = tail call ptr @range_union_internal(ptr noundef nonnull %.0.i, ptr noundef nonnull %5, ptr noundef %9, i1 noundef zeroext false)
  %30 = ptrtoint ptr %29 to i64
  ret i64 %30
}